target datalayout = "e-m:e-p270:32:32-p271:32:32-p272:64:64-i64:64-i128:128-f80:128-n8:16:32:64-S128"
target triple = "x86_64-unknown-linux-gnu"

@.str.8 = private unnamed_addr constant [24 x i8] c"EXR_CHECK_ENABLE_PRINTS\00", align 1
@.str.9 = private unnamed_addr constant [8 x i8] c"<error>\00", align 1
@stderr = external global ptr, align 8
@.str.10 = private unnamed_addr constant [21 x i8] c"ERROR '%s' (%s): %s\0A\00", align 1

; Function Attrs: mustprogress uwtable
define internal void @_ZN7Imf_3_212_GLOBAL__N_121core_error_handler_cbEPK19_priv_exr_context_tiPKc(ptr noundef %f, i32 noundef %code, ptr noundef %msg) #4 {
entry:
  %f.addr = alloca ptr, align 8
  %code.addr = alloca i32, align 4
  %msg.addr = alloca ptr, align 8
  %fn = alloca ptr, align 8
  store ptr %f, ptr %f.addr, align 8
  store i32 %code, ptr %code.addr, align 4
  store ptr %msg, ptr %msg.addr, align 8
  %call = call ptr @getenv(ptr noundef @.str.8) #3
  %cmp = icmp ne ptr %call, null
  br i1 %cmp, label %if.then, label %if.end6

if.then:                                          ; preds = %entry
  %0 = load ptr, ptr %f.addr, align 8
  %call1 = call i32 @exr_get_file_name(ptr noundef %0, ptr noundef %fn)
  %cmp2 = icmp ne i32 0, %call1
  br i1 %cmp2, label %if.then3, label %if.end

if.then3:                                         ; preds = %if.then
  store ptr @.str.9, ptr %fn, align 8
  br label %if.end

if.end:                                           ; preds = %if.then3, %if.then
  %1 = load ptr, ptr @stderr, align 8
  %2 = load ptr, ptr %fn, align 8
  %3 = load i32, ptr %code.addr, align 4
  %call4 = call ptr @exr_get_error_code_as_string(i32 noundef %3)
  %4 = load ptr, ptr %msg.addr, align 8
  %call5 = call i32 (ptr, ptr, ...) @fprintf(ptr noundef %1, ptr noundef @.str.10, ptr noundef %2, ptr noundef %call4, ptr noundef %4)
  br label %if.end6

if.end6:                                          ; preds = %if.end, %entry
  ret void
}