; Function Attrs: mustprogress uwtable
define internal void @_ZN7Imf_3_212_GLOBAL__N_121core_error_handler_cbEPK19_priv_exr_context_tiPKc(ptr noundef %f, i32 noundef %code, ptr noundef %msg) #3 {
entry:
  %fn = alloca ptr, align 8
  %call = tail call ptr @getenv(ptr noundef nonnull @.str.8) #22
  %cmp.not = icmp eq ptr %call, null
  br i1 %cmp.not, label %if.end6, label %if.then

if.then:                                          ; preds = %entry
  %call1 = call i32 @exr_get_file_name(ptr noundef %f, ptr noundef nonnull %fn)
  %cmp2.not = icmp eq i32 %call1, 0
  br i1 %cmp2.not, label %if.then.if.end_crit_edge, label %if.then3

if.then.if.end_crit_edge:                         ; preds = %if.then
  %.pre = load ptr, ptr %fn, align 8
  br label %if.end

if.then3:                                         ; preds = %if.then
  store ptr @.str.9, ptr %fn, align 8
  br label %if.end

if.end:                                           ; preds = %if.then.if.end_crit_edge, %if.then3
  %0 = phi ptr [ %.pre, %if.then.if.end_crit_edge ], [ @.str.9, %if.then3 ]
  %1 = load ptr, ptr @stderr, align 8
  %call4 = call ptr @exr_get_error_code_as_string(i32 noundef %code)
  %call5 = call i32 (ptr, ptr, ...) @fprintf(ptr noundef %1, ptr noundef nonnull @.str.10, ptr noundef %0, ptr noundef %call4, ptr noundef %msg) #23
  br label %if.end6

if.end6:                                          ; preds = %if.end, %entry
  ret void
}